target datalayout = "e-m:e-p270:32:32-p271:32:32-p272:64:64-i64:64-i128:128-f80:128-n8:16:32:64-S128"
target triple = "x86_64-pc-linux-gnu"

%struct.UHashtable = type { ptr, ptr, ptr, ptr, ptr, ptr, i32, i32, i32, i32, float, float, i8, i8 }
%struct.UHashElement = type { i32, %union.UElement, %union.UElement }
%union.UElement = type { ptr }

; Function Attrs: mustprogress nounwind uwtable
define ptr @uhash_nextElement_77(ptr noundef %0, ptr noundef %1) #2 {
  %3 = alloca ptr, align 8
  %4 = alloca ptr, align 8
  %5 = alloca ptr, align 8
  %6 = alloca i32, align 4
  %7 = alloca i32, align 4
  store ptr %0, ptr %4, align 8, !tbaa !11
  store ptr %1, ptr %5, align 8, !tbaa !29
  call void @llvm.lifetime.start.p0(i64 4, ptr %6) #9
  %8 = load ptr, ptr %5, align 8, !tbaa !29
  %9 = load i32, ptr %8, align 4, !tbaa !7
  %10 = add nsw i32 %9, 1
  store i32 %10, ptr %6, align 4, !tbaa !7
  br label %11

11:                                               ; preds = %37, %2
  %12 = load i32, ptr %6, align 4, !tbaa !7
  %13 = load ptr, ptr %4, align 8, !tbaa !11
  %14 = getelementptr inbounds nuw %struct.UHashtable, ptr %13, i32 0, i32 7
  %15 = load i32, ptr %14, align 4, !tbaa !31
  %16 = icmp slt i32 %12, %15
  br i1 %16, label %17, label %40

17:                                               ; preds = %11
  %18 = load ptr, ptr %4, align 8, !tbaa !11
  %19 = getelementptr inbounds nuw %struct.UHashtable, ptr %18, i32 0, i32 0
  %20 = load ptr, ptr %19, align 8, !tbaa !25
  %21 = load i32, ptr %6, align 4, !tbaa !7
  %22 = sext i32 %21 to i64
  %23 = getelementptr inbounds %struct.UHashElement, ptr %20, i64 %22
  %24 = getelementptr inbounds nuw %struct.UHashElement, ptr %23, i32 0, i32 0
  %25 = load i32, ptr %24, align 8, !tbaa !32
  %26 = icmp slt i32 %25, 0
  br i1 %26, label %36, label %27

27:                                               ; preds = %17
  %28 = load i32, ptr %6, align 4, !tbaa !7
  %29 = load ptr, ptr %5, align 8, !tbaa !29
  store i32 %28, ptr %29, align 4, !tbaa !7
  %30 = load ptr, ptr %4, align 8, !tbaa !11
  %31 = getelementptr inbounds nuw %struct.UHashtable, ptr %30, i32 0, i32 0
  %32 = load ptr, ptr %31, align 8, !tbaa !25
  %33 = load i32, ptr %6, align 4, !tbaa !7
  %34 = sext i32 %33 to i64
  %35 = getelementptr inbounds %struct.UHashElement, ptr %32, i64 %34
  store ptr %35, ptr %3, align 8
  store i32 1, ptr %7, align 4
  br label %41

36:                                               ; preds = %17
  br label %37

37:                                               ; preds = %36
  %38 = load i32, ptr %6, align 4, !tbaa !7
  %39 = add nsw i32 %38, 1
  store i32 %39, ptr %6, align 4, !tbaa !7
  br label %11, !llvm.loop !34

40:                                               ; preds = %11
  store ptr null, ptr %3, align 8
  store i32 1, ptr %7, align 4
  br label %41

41:                                               ; preds = %40, %27
  call void @llvm.lifetime.end.p0(i64 4, ptr %6) #9
  %42 = load ptr, ptr %3, align 8
  ret ptr %42
}