; Function Attrs: mustprogress nofree norecurse nosync nounwind memory(read, argmem: readwrite, inaccessiblemem: none) uwtable
define noundef ptr @uhash_nextElement_77(ptr noundef readonly captures(none) %0, ptr noundef captures(none) %1) local_unnamed_addr #2 {
  %3 = load i32, ptr %1, align 4, !tbaa !19
  %4 = getelementptr inbounds nuw i8, ptr %0, i64 52
  %5 = load i32, ptr %4, align 4, !tbaa !20
  %6 = sext i32 %3 to i64
  %7 = sext i32 %5 to i64
  br label %8

8:                                                ; preds = %10, %2
  %indvars.iv = phi i64 [ %indvars.iv.next, %10 ], [ %6, %2 ]
  %indvars.iv.next = add nsw i64 %indvars.iv, 1
  %9 = icmp slt i64 %indvars.iv.next, %7
  br i1 %9, label %10, label %.loopexit

10:                                               ; preds = %8
  %11 = load ptr, ptr %0, align 8, !tbaa !21
  %12 = getelementptr inbounds %struct.UHashElement, ptr %11, i64 %indvars.iv.next
  %13 = load i32, ptr %12, align 8, !tbaa !22
  %14 = icmp slt i32 %13, 0
  br i1 %14, label %8, label %15, !llvm.loop !33

15:                                               ; preds = %10
  %16 = trunc nsw i64 %indvars.iv.next to i32
  store i32 %16, ptr %1, align 4, !tbaa !19
  br label %.loopexit

.loopexit:                                        ; preds = %8, %15
  %.010 = phi ptr [ %12, %15 ], [ null, %8 ]
  ret ptr %.010
}